target datalayout = "e-m:e-p270:32:32-p271:32:32-p272:64:64-i64:64-i128:128-f80:128-n8:16:32:64-S128"
target triple = "x86_64-pc-linux-gnu"

%struct.RBasic = type { i64, i64 }
%struct.RArray = type { %struct.RBasic, %union.anon.19 }
%union.anon.19 = type { %struct.anon.20 }
%struct.anon.20 = type { i64, %union.anon.21, ptr }
%union.anon.21 = type { i64 }

@.str.218 = private unnamed_addr constant [36 x i8] c"invalid name for global variable - \00", align 1
@rb_eNameError = external global i64, align 8

; Function Attrs: inlinehint nounwind sspstrong willreturn memory(none) uwtable
define internal i32 @rb_islower(i32 noundef %0) #13 {
  %2 = alloca i32, align 4
  store i32 %0, ptr %2, align 4, !tbaa !12
  %3 = load i32, ptr %2, align 4, !tbaa !12
  %4 = icmp sle i32 97, %3
  br i1 %4, label %5, label %8

5:                                                ; preds = %1
  %6 = load i32, ptr %2, align 4, !tbaa !12
  %7 = icmp sle i32 %6, 122
  br label %8

8:                                                ; preds = %5, %1
  %9 = phi i1 [ false, %1 ], [ %7, %5 ]
  %10 = zext i1 %9 to i32
  ret i32 %10
}

; Function Attrs: inlinehint nounwind sspstrong willreturn memory(none) uwtable
define internal i32 @rb_isupper(i32 noundef %0) #13 {
  %2 = alloca i32, align 4
  store i32 %0, ptr %2, align 4, !tbaa !12
  %3 = load i32, ptr %2, align 4, !tbaa !12
  %4 = icmp sle i32 65, %3
  br i1 %4, label %5, label %8

5:                                                ; preds = %1
  %6 = load i32, ptr %2, align 4, !tbaa !12
  %7 = icmp sle i32 %6, 90
  br label %8

8:                                                ; preds = %5, %1
  %9 = phi i1 [ false, %1 ], [ %7, %5 ]
  %10 = zext i1 %9 to i32
  ret i32 %10
}

; Function Attrs: inlinehint nounwind sspstrong willreturn memory(read) uwtable
define internal i64 @RB_FL_TEST_RAW(i64 noundef %0, i64 noundef %1) #7 {
  %3 = alloca i64, align 8
  %4 = alloca i64, align 8
  store i64 %0, ptr %3, align 8, !tbaa !42
  store i64 %1, ptr %4, align 8, !tbaa !42
  %5 = load i64, ptr %3, align 8, !tbaa !42
  %6 = inttoptr i64 %5 to ptr
  %7 = getelementptr inbounds nuw %struct.RBasic, ptr %6, i32 0, i32 0
  %8 = load i64, ptr %7, align 8, !tbaa !144
  %9 = load i64, ptr %4, align 8, !tbaa !42
  %10 = and i64 %8, %9
  ret i64 %10
}

; Function Attrs: inlinehint nounwind sspstrong uwtable
define internal i64 @rbimpl_strlen(ptr noundef nonnull %0) #5 {
  %2 = alloca ptr, align 8
  store ptr %0, ptr %2, align 8, !tbaa !7
  %3 = load ptr, ptr %2, align 8, !tbaa !7
  %4 = call i64 @strlen(ptr noundef %3) #25
  ret i64 %4
}

; Function Attrs: inlinehint nounwind sspstrong willreturn memory(none) uwtable
define internal i32 @rb_isdigit(i32 noundef %0) #13 {
  %2 = alloca i32, align 4
  store i32 %0, ptr %2, align 4, !tbaa !12
  %3 = load i32, ptr %2, align 4, !tbaa !12
  %4 = icmp sle i32 48, %3
  br i1 %4, label %5, label %8

5:                                                ; preds = %1
  %6 = load i32, ptr %2, align 4, !tbaa !12
  %7 = icmp sle i32 %6, 57
  br label %8

8:                                                ; preds = %5, %1
  %9 = phi i1 [ false, %1 ], [ %7, %5 ]
  %10 = zext i1 %9 to i32
  ret i32 %10
}

; Function Attrs: inlinehint nounwind sspstrong willreturn memory(none) uwtable
define internal i32 @rb_isalpha(i32 noundef %0) #13 {
  %2 = alloca i32, align 4
  store i32 %0, ptr %2, align 4, !tbaa !12
  %3 = load i32, ptr %2, align 4, !tbaa !12
  %4 = call i32 @rb_isupper(i32 noundef %3) #27
  %5 = icmp ne i32 %4, 0
  br i1 %5, label %10, label %6

6:                                                ; preds = %1
  %7 = load i32, ptr %2, align 4, !tbaa !12
  %8 = call i32 @rb_islower(i32 noundef %7) #27
  %9 = icmp ne i32 %8, 0
  br label %10

10:                                               ; preds = %6, %1
  %11 = phi i1 [ true, %1 ], [ %9, %6 ]
  %12 = zext i1 %11 to i32
  ret i32 %12
}

; Function Attrs: inlinehint nounwind sspstrong willreturn memory(read) uwtable
define internal i64 @RARRAY_EMBED_LEN(i64 noundef %0) #7 {
  %2 = alloca i64, align 8
  %3 = alloca i64, align 8
  store i64 %0, ptr %2, align 8, !tbaa !42
  call void @llvm.lifetime.start.p0(i64 8, ptr %3) #24
  %4 = load i64, ptr %2, align 8, !tbaa !42
  %5 = inttoptr i64 %4 to ptr
  %6 = getelementptr inbounds nuw %struct.RBasic, ptr %5, i32 0, i32 0
  %7 = load i64, ptr %6, align 8, !tbaa !144
  store i64 %7, ptr %3, align 8, !tbaa !42
  %8 = load i64, ptr %3, align 8, !tbaa !42
  %9 = and i64 %8, 4161536
  store i64 %9, ptr %3, align 8, !tbaa !42
  %10 = load i64, ptr %3, align 8, !tbaa !42
  %11 = lshr i64 %10, 15
  store i64 %11, ptr %3, align 8, !tbaa !42
  %12 = load i64, ptr %3, align 8, !tbaa !42
  call void @llvm.lifetime.end.p0(i64 8, ptr %3) #24
  ret i64 %12
}

; Function Attrs: inlinehint nounwind sspstrong willreturn memory(read) uwtable
define internal zeroext i1 @RB_FL_ANY_RAW(i64 noundef %0, i64 noundef %1) #7 {
  %3 = alloca i64, align 8
  %4 = alloca i64, align 8
  store i64 %0, ptr %3, align 8, !tbaa !42
  store i64 %1, ptr %4, align 8, !tbaa !42
  %5 = load i64, ptr %3, align 8, !tbaa !42
  %6 = load i64, ptr %4, align 8, !tbaa !42
  %7 = call i64 @RB_FL_TEST_RAW(i64 noundef %5, i64 noundef %6) #25
  %8 = icmp ne i64 %7, 0
  ret i1 %8
}

; Function Attrs: inlinehint nounwind sspstrong uwtable
define internal i64 @rbimpl_str_new_cstr(ptr noundef nonnull %0) #5 {
  %2 = alloca ptr, align 8
  %3 = alloca i64, align 8
  store ptr %0, ptr %2, align 8, !tbaa !7
  call void @llvm.lifetime.start.p0(i64 8, ptr %3) #24
  %4 = load ptr, ptr %2, align 8, !tbaa !7
  %5 = call i64 @rbimpl_strlen(ptr noundef %4)
  store i64 %5, ptr %3, align 8, !tbaa !42
  %6 = load ptr, ptr %2, align 8, !tbaa !7
  %7 = load i64, ptr %3, align 8, !tbaa !42
  %8 = call i64 @rb_str_new_static(ptr noundef %6, i64 noundef %7)
  call void @llvm.lifetime.end.p0(i64 8, ptr %3) #24
  ret i64 %8
}

; Function Attrs: inlinehint nounwind sspstrong willreturn memory(none) uwtable
define internal i32 @rb_isalnum(i32 noundef %0) #13 {
  %2 = alloca i32, align 4
  store i32 %0, ptr %2, align 4, !tbaa !12
  %3 = load i32, ptr %2, align 4, !tbaa !12
  %4 = call i32 @rb_isalpha(i32 noundef %3) #27
  %5 = icmp ne i32 %4, 0
  br i1 %5, label %10, label %6

6:                                                ; preds = %1
  %7 = load i32, ptr %2, align 4, !tbaa !12
  %8 = call i32 @rb_isdigit(i32 noundef %7) #27
  %9 = icmp ne i32 %8, 0
  br label %10

10:                                               ; preds = %6, %1
  %11 = phi i1 [ true, %1 ], [ %9, %6 ]
  %12 = zext i1 %11 to i32
  ret i32 %12
}

; Function Attrs: inlinehint nounwind sspstrong willreturn memory(read) uwtable
define internal ptr @rb_array_const_ptr(i64 noundef %0) #7 {
  %2 = alloca ptr, align 8
  %3 = alloca i64, align 8
  store i64 %0, ptr %3, align 8, !tbaa !42
  %4 = load i64, ptr %3, align 8, !tbaa !42
  %5 = call zeroext i1 @RB_FL_ANY_RAW(i64 noundef %4, i64 noundef 8192) #25
  br i1 %5, label %6, label %11

6:                                                ; preds = %1
  %7 = load i64, ptr %3, align 8, !tbaa !42
  %8 = inttoptr i64 %7 to ptr
  %9 = getelementptr inbounds nuw %struct.RArray, ptr %8, i32 0, i32 1
  %10 = getelementptr inbounds [1 x i64], ptr %9, i64 0, i64 0
  store ptr %10, ptr %2, align 8
  br label %17

11:                                               ; preds = %1
  %12 = load i64, ptr %3, align 8, !tbaa !42
  %13 = inttoptr i64 %12 to ptr
  %14 = getelementptr inbounds nuw %struct.RArray, ptr %13, i32 0, i32 1
  %15 = getelementptr inbounds nuw %struct.anon.20, ptr %14, i32 0, i32 2
  %16 = load ptr, ptr %15, align 8, !tbaa !14
  store ptr %16, ptr %2, align 8
  br label %17

17:                                               ; preds = %11, %6
  %18 = load ptr, ptr %2, align 8
  ret ptr %18
}

; Function Attrs: inlinehint nounwind sspstrong willreturn memory(read) uwtable
define internal i64 @rb_array_len(i64 noundef %0) #7 {
  %2 = alloca i64, align 8
  %3 = alloca i64, align 8
  store i64 %0, ptr %3, align 8, !tbaa !42
  %4 = load i64, ptr %3, align 8, !tbaa !42
  %5 = call zeroext i1 @RB_FL_ANY_RAW(i64 noundef %4, i64 noundef 8192) #25
  br i1 %5, label %6, label %9

6:                                                ; preds = %1
  %7 = load i64, ptr %3, align 8, !tbaa !42
  %8 = call i64 @RARRAY_EMBED_LEN(i64 noundef %7) #25
  store i64 %8, ptr %2, align 8
  br label %15

9:                                                ; preds = %1
  %10 = load i64, ptr %3, align 8, !tbaa !42
  %11 = inttoptr i64 %10 to ptr
  %12 = getelementptr inbounds nuw %struct.RArray, ptr %11, i32 0, i32 1
  %13 = getelementptr inbounds nuw %struct.anon.20, ptr %12, i32 0, i32 0
  %14 = load i64, ptr %13, align 8, !tbaa !14
  store i64 %14, ptr %2, align 8
  br label %15

15:                                               ; preds = %9, %6
  %16 = load i64, ptr %2, align 8
  ret i64 %16
}

; Function Attrs: nounwind sspstrong uwtable
define internal i32 @process_sflag(i32 noundef %0) #0 {
  %2 = alloca i32, align 4
  %3 = alloca i32, align 4
  %4 = alloca i64, align 8
  %5 = alloca ptr, align 8
  %6 = alloca i64, align 8
  %7 = alloca i64, align 8
  %8 = alloca ptr, align 8
  %9 = alloca ptr, align 8
  %10 = alloca i32, align 4
  %11 = alloca i32, align 4
  %12 = alloca [2 x i64], align 16
  store i32 %0, ptr %3, align 4, !tbaa !12
  %13 = load i32, ptr %3, align 4, !tbaa !12
  %14 = icmp sgt i32 %13, 0
  br i1 %14, label %15, label %162

15:                                               ; preds = %1
  call void @llvm.lifetime.start.p0(i64 8, ptr %4) #24
  call void @llvm.lifetime.start.p0(i64 8, ptr %5) #24
  call void @llvm.lifetime.start.p0(i64 8, ptr %6) #24
  %16 = call i64 @rb_get_argv()
  store i64 %16, ptr %6, align 8, !tbaa !42
  %17 = load i64, ptr %6, align 8, !tbaa !42
  %18 = call i64 @rb_array_len(i64 noundef %17) #25
  store i64 %18, ptr %4, align 8, !tbaa !42
  %19 = load i64, ptr %6, align 8, !tbaa !42
  %20 = call ptr @rb_array_const_ptr(i64 noundef %19) #25
  store ptr %20, ptr %5, align 8, !tbaa !72
  br label %21

21:                                               ; preds = %148, %15
  %22 = load i64, ptr %4, align 8, !tbaa !42
  %23 = icmp sgt i64 %22, 0
  br i1 %23, label %24, label %149

24:                                               ; preds = %21
  call void @llvm.lifetime.start.p0(i64 8, ptr %7) #24
  %25 = load ptr, ptr %5, align 8, !tbaa !72
  %26 = getelementptr i64, ptr %25, i32 1
  store ptr %26, ptr %5, align 8, !tbaa !72
  %27 = load i64, ptr %25, align 8, !tbaa !42
  store i64 %27, ptr %7, align 8, !tbaa !42
  call void @llvm.lifetime.start.p0(i64 8, ptr %8) #24
  %28 = call ptr @rb_string_value_ptr(ptr noundef %7)
  store ptr %28, ptr %8, align 8, !tbaa !7
  call void @llvm.lifetime.start.p0(i64 8, ptr %9) #24
  call void @llvm.lifetime.start.p0(i64 4, ptr %10) #24
  store i32 0, ptr %10, align 4, !tbaa !12
  %29 = load ptr, ptr %8, align 8, !tbaa !7
  %30 = getelementptr i8, ptr %29, i64 0
  %31 = load i8, ptr %30, align 1, !tbaa !14
  %32 = sext i8 %31 to i32
  %33 = icmp ne i32 %32, 45
  br i1 %33, label %34, label %35

34:                                               ; preds = %24
  store i32 3, ptr %11, align 4
  br label %146

35:                                               ; preds = %24
  %36 = load i64, ptr %4, align 8, !tbaa !42
  %37 = add i64 %36, -1
  store i64 %37, ptr %4, align 8, !tbaa !42
  %38 = load ptr, ptr %8, align 8, !tbaa !7
  %39 = getelementptr i8, ptr %38, i64 1
  %40 = load i8, ptr %39, align 1, !tbaa !14
  %41 = sext i8 %40 to i32
  %42 = icmp eq i32 %41, 45
  br i1 %42, label %43, label %50

43:                                               ; preds = %35
  %44 = load ptr, ptr %8, align 8, !tbaa !7
  %45 = getelementptr i8, ptr %44, i64 2
  %46 = load i8, ptr %45, align 1, !tbaa !14
  %47 = sext i8 %46 to i32
  %48 = icmp eq i32 %47, 0
  br i1 %48, label %49, label %50

49:                                               ; preds = %43
  store i32 3, ptr %11, align 4
  br label %146

50:                                               ; preds = %43, %35
  store i64 20, ptr %7, align 8, !tbaa !42
  %51 = load ptr, ptr %8, align 8, !tbaa !7
  %52 = getelementptr i8, ptr %51, i64 1
  store ptr %52, ptr %9, align 8, !tbaa !7
  br label %53

53:                                               ; preds = %115, %50
  %54 = load ptr, ptr %9, align 8, !tbaa !7
  %55 = load i8, ptr %54, align 1, !tbaa !14
  %56 = icmp ne i8 %55, 0
  br i1 %56, label %57, label %118

57:                                               ; preds = %53
  %58 = load ptr, ptr %9, align 8, !tbaa !7
  %59 = load i8, ptr %58, align 1, !tbaa !14
  %60 = sext i8 %59 to i32
  %61 = icmp eq i32 %60, 61
  br i1 %61, label %62, label %67

62:                                               ; preds = %57
  %63 = load ptr, ptr %9, align 8, !tbaa !7
  %64 = getelementptr i8, ptr %63, i32 1
  store ptr %64, ptr %9, align 8, !tbaa !7
  store i8 0, ptr %63, align 1, !tbaa !14
  %65 = load ptr, ptr %9, align 8, !tbaa !7
  %66 = call i64 @rb_str_new_cstr(ptr noundef %65)
  store i64 %66, ptr %7, align 8, !tbaa !42
  br label %118

67:                                               ; preds = %57
  %68 = load ptr, ptr %9, align 8, !tbaa !7
  %69 = load i8, ptr %68, align 1, !tbaa !14
  %70 = sext i8 %69 to i32
  %71 = icmp eq i32 %70, 45
  br i1 %71, label %72, label %73

72:                                               ; preds = %67
  store i32 1, ptr %10, align 4, !tbaa !12
  br label %114

73:                                               ; preds = %67
  %74 = load ptr, ptr %9, align 8, !tbaa !7
  %75 = load i8, ptr %74, align 1, !tbaa !14
  %76 = sext i8 %75 to i32
  %77 = icmp ne i32 %76, 95
  br i1 %77, label %78, label %113

78:                                               ; preds = %73
  %79 = load ptr, ptr %9, align 8, !tbaa !7
  %80 = load i8, ptr %79, align 1, !tbaa !14
  %81 = sext i8 %80 to i32
  %82 = call i32 @rb_isalnum(i32 noundef %81) #27
  %83 = icmp ne i32 %82, 0
  br i1 %83, label %113, label %84

84:                                               ; preds = %78
  call void @llvm.lifetime.start.p0(i64 16, ptr %12) #24
  %85 = call i64 @rbimpl_str_new_cstr(ptr noundef @.str.218)
  %86 = getelementptr [2 x i64], ptr %12, i64 0, i64 0
  store i64 %85, ptr %86, align 16, !tbaa !42
  %87 = load ptr, ptr %9, align 8, !tbaa !7
  %88 = call ptr @strchr(ptr noundef %87, i32 noundef 61) #25
  store ptr %88, ptr %9, align 8, !tbaa !7
  %89 = icmp ne ptr %88, null
  br i1 %89, label %95, label %90

90:                                               ; preds = %84
  %91 = getelementptr [2 x i64], ptr %12, i64 0, i64 0
  %92 = load i64, ptr %91, align 16, !tbaa !42
  %93 = load ptr, ptr %8, align 8, !tbaa !7
  %94 = call i64 @rb_str_cat_cstr(i64 noundef %92, ptr noundef %93)
  br label %105

95:                                               ; preds = %84
  %96 = getelementptr [2 x i64], ptr %12, i64 0, i64 0
  %97 = load i64, ptr %96, align 16, !tbaa !42
  %98 = load ptr, ptr %8, align 8, !tbaa !7
  %99 = load ptr, ptr %9, align 8, !tbaa !7
  %100 = load ptr, ptr %8, align 8, !tbaa !7
  %101 = ptrtoint ptr %99 to i64
  %102 = ptrtoint ptr %100 to i64
  %103 = sub i64 %101, %102
  %104 = call i64 @rb_str_cat(i64 noundef %97, ptr noundef %98, i64 noundef %103)
  br label %105

105:                                              ; preds = %95, %90
  %106 = load ptr, ptr %5, align 8, !tbaa !72
  %107 = getelementptr i64, ptr %106, i64 -1
  %108 = load i64, ptr %107, align 8, !tbaa !42
  %109 = getelementptr [2 x i64], ptr %12, i64 0, i64 1
  store i64 %108, ptr %109, align 8, !tbaa !42
  %110 = getelementptr inbounds [2 x i64], ptr %12, i64 0, i64 0
  %111 = load i64, ptr @rb_eNameError, align 8, !tbaa !42
  %112 = call i64 @rb_class_new_instance(i32 noundef 2, ptr noundef %110, i64 noundef %111)
  call void @rb_exc_raise(i64 noundef %112) #26
  unreachable

113:                                              ; preds = %78, %73
  br label %114

114:                                              ; preds = %113, %72
  br label %115

115:                                              ; preds = %114
  %116 = load ptr, ptr %9, align 8, !tbaa !7
  %117 = getelementptr i8, ptr %116, i32 1
  store ptr %117, ptr %9, align 8, !tbaa !7
  br label %53, !llvm.loop !170

118:                                              ; preds = %62, %53
  %119 = load ptr, ptr %8, align 8, !tbaa !7
  %120 = getelementptr i8, ptr %119, i64 0
  store i8 36, ptr %120, align 1, !tbaa !14
  %121 = load i32, ptr %10, align 4, !tbaa !12
  %122 = icmp ne i32 %121, 0
  br i1 %122, label %123, label %142

123:                                              ; preds = %118
  %124 = load ptr, ptr %8, align 8, !tbaa !7
  %125 = getelementptr i8, ptr %124, i64 1
  store ptr %125, ptr %9, align 8, !tbaa !7
  br label %126

126:                                              ; preds = %138, %123
  %127 = load ptr, ptr %9, align 8, !tbaa !7
  %128 = load i8, ptr %127, align 1, !tbaa !14
  %129 = icmp ne i8 %128, 0
  br i1 %129, label %130, label %141

130:                                              ; preds = %126
  %131 = load ptr, ptr %9, align 8, !tbaa !7
  %132 = load i8, ptr %131, align 1, !tbaa !14
  %133 = sext i8 %132 to i32
  %134 = icmp eq i32 %133, 45
  br i1 %134, label %135, label %137

135:                                              ; preds = %130
  %136 = load ptr, ptr %9, align 8, !tbaa !7
  store i8 95, ptr %136, align 1, !tbaa !14
  br label %137

137:                                              ; preds = %135, %130
  br label %138

138:                                              ; preds = %137
  %139 = load ptr, ptr %9, align 8, !tbaa !7
  %140 = getelementptr i8, ptr %139, i32 1
  store ptr %140, ptr %9, align 8, !tbaa !7
  br label %126, !llvm.loop !171

141:                                              ; preds = %126
  br label %142

142:                                              ; preds = %141, %118
  %143 = load ptr, ptr %8, align 8, !tbaa !7
  %144 = load i64, ptr %7, align 8, !tbaa !42
  %145 = call i64 @rb_gv_set(ptr noundef %143, i64 noundef %144)
  store i32 0, ptr %11, align 4
  br label %146

146:                                              ; preds = %142, %49, %34
  call void @llvm.lifetime.end.p0(i64 4, ptr %10) #24
  call void @llvm.lifetime.end.p0(i64 8, ptr %9) #24
  call void @llvm.lifetime.end.p0(i64 8, ptr %8) #24
  call void @llvm.lifetime.end.p0(i64 8, ptr %7) #24
  %147 = load i32, ptr %11, align 4
  switch i32 %147, label %166 [
    i32 0, label %148
    i32 3, label %149
  ]

148:                                              ; preds = %146
  br label %21, !llvm.loop !172

149:                                              ; preds = %146, %21
  %150 = load i64, ptr %6, align 8, !tbaa !42
  %151 = call i64 @rb_array_len(i64 noundef %150) #25
  %152 = load i64, ptr %4, align 8, !tbaa !42
  %153 = sub i64 %151, %152
  store i64 %153, ptr %4, align 8, !tbaa !42
  br label %154

154:                                              ; preds = %158, %149
  %155 = load i64, ptr %4, align 8, !tbaa !42
  %156 = add i64 %155, -1
  store i64 %156, ptr %4, align 8, !tbaa !42
  %157 = icmp ne i64 %155, 0
  br i1 %157, label %158, label %161

158:                                              ; preds = %154
  %159 = load i64, ptr %6, align 8, !tbaa !42
  %160 = call i64 @rb_ary_shift(i64 noundef %159)
  br label %154, !llvm.loop !173

161:                                              ; preds = %154
  store i32 -1, ptr %2, align 4
  store i32 1, ptr %11, align 4
  call void @llvm.lifetime.end.p0(i64 8, ptr %6) #24
  call void @llvm.lifetime.end.p0(i64 8, ptr %5) #24
  call void @llvm.lifetime.end.p0(i64 8, ptr %4) #24
  br label %164

162:                                              ; preds = %1
  %163 = load i32, ptr %3, align 4, !tbaa !12
  store i32 %163, ptr %2, align 4
  br label %164

164:                                              ; preds = %162, %161
  %165 = load i32, ptr %2, align 4
  ret i32 %165

166:                                              ; preds = %146
  unreachable
}