; Function Attrs: nounwind sspstrong uwtable
define internal fastcc range(i32 -2, 1) i32 @process_sflag(i32 noundef range(i32 -2, 2) %0) unnamed_addr #0 {
  %2 = alloca i64, align 8
  %3 = alloca [2 x i64], align 16
  %4 = icmp sgt i32 %0, 0
  br i1 %4, label %5, label %.loopexit

5:                                                ; preds = %1
  %6 = tail call i64 @rb_get_argv() #25
  %7 = inttoptr i64 %6 to ptr
  %8 = load i64, ptr %7, align 8, !tbaa !42
  %9 = and i64 %8, 8192
  %.not.i = icmp eq i64 %9, 0
  br i1 %.not.i, label %14, label %10

10:                                               ; preds = %5
  %11 = lshr i64 %8, 15
  %12 = and i64 %11, 127
  %13 = getelementptr inbounds nuw i8, ptr %7, i64 16
  br label %rb_array_const_ptr.exit

14:                                               ; preds = %5
  %15 = getelementptr inbounds nuw i8, ptr %7, i64 16
  %16 = load i64, ptr %15, align 8, !tbaa !7
  %17 = getelementptr inbounds nuw i8, ptr %7, i64 32
  %18 = load ptr, ptr %17, align 8, !tbaa !7
  br label %rb_array_const_ptr.exit

rb_array_const_ptr.exit:                          ; preds = %10, %14
  %.0.i63 = phi i64 [ %12, %10 ], [ %16, %14 ]
  %.0.i58 = phi ptr [ %13, %10 ], [ %18, %14 ]
  %19 = icmp sgt i64 %.0.i63, 0
  br i1 %19, label %.lr.ph, label %.loopexit71

.lr.ph:                                           ; preds = %rb_array_const_ptr.exit, %.loopexit69
  %.04283 = phi i64 [ %25, %.loopexit69 ], [ %.0.i63, %rb_array_const_ptr.exit ]
  %.04482 = phi ptr [ %20, %.loopexit69 ], [ %.0.i58, %rb_array_const_ptr.exit ]
  call void @llvm.lifetime.start.p0(i64 8, ptr nonnull %2) #25
  %20 = getelementptr i8, ptr %.04482, i64 8
  %21 = load i64, ptr %.04482, align 8, !tbaa !47
  store i64 %21, ptr %2, align 8, !tbaa !47
  %22 = call ptr @rb_string_value_ptr(ptr noundef nonnull %2) #25
  %23 = load i8, ptr %22, align 1, !tbaa !7
  %.not = icmp eq i8 %23, 45
  br i1 %.not, label %24, label %.thread

24:                                               ; preds = %.lr.ph
  %25 = add nsw i64 %.04283, -1
  %26 = getelementptr i8, ptr %22, i64 1
  %27 = load i8, ptr %26, align 1, !tbaa !7
  %28 = icmp eq i8 %27, 45
  br i1 %28, label %29, label %33

29:                                               ; preds = %24
  %30 = getelementptr i8, ptr %22, i64 2
  %31 = load i8, ptr %30, align 1, !tbaa !7
  %32 = icmp eq i8 %31, 0
  br i1 %32, label %.thread, label %33

33:                                               ; preds = %29, %24
  store i64 20, ptr %2, align 8, !tbaa !47
  br label %34

34:                                               ; preds = %60, %33
  %.039 = phi ptr [ %26, %33 ], [ %61, %60 ]
  %.038 = phi i32 [ 0, %33 ], [ %.1, %60 ]
  %35 = load i8, ptr %.039, align 1, !tbaa !7
  switch i8 %35, label %39 [
    i8 0, label %.loopexit70
    i8 61, label %36
    i8 45, label %60
    i8 95, label %.fold.split
  ]

36:                                               ; preds = %34
  %37 = getelementptr i8, ptr %.039, i64 1
  store i8 0, ptr %.039, align 1, !tbaa !7
  %38 = call i64 @rb_str_new_cstr(ptr noundef %37) #25
  store i64 %38, ptr %2, align 8, !tbaa !47
  br label %.loopexit70

39:                                               ; preds = %34
  %40 = sext i8 %35 to i32
  %41 = and i32 %40, -33
  %42 = add nsw i32 %41, -91
  %narrow.i.i = icmp ult i32 %42, -26
  %43 = add nsw i32 %40, -58
  %44 = icmp ult i32 %43, -10
  %narrow.i.not = select i1 %narrow.i.i, i1 %44, i1 false
  br i1 %narrow.i.not, label %45, label %60

45:                                               ; preds = %39
  call void @llvm.lifetime.start.p0(i64 16, ptr nonnull %3) #25
  %46 = call i64 @rb_str_new_static(ptr noundef nonnull @.str.218, i64 noundef 35) #25
  store i64 %46, ptr %3, align 16, !tbaa !47
  %47 = call ptr @strchr(ptr noundef nonnull dereferenceable(1) %.039, i32 noundef 61) #24
  %.not53 = icmp eq ptr %47, null
  br i1 %.not53, label %48, label %50

48:                                               ; preds = %45
  %49 = call i64 @rb_str_cat_cstr(i64 noundef %46, ptr noundef nonnull %22) #25
  br label %55

50:                                               ; preds = %45
  %51 = ptrtoint ptr %47 to i64
  %52 = ptrtoint ptr %22 to i64
  %53 = sub i64 %51, %52
  %54 = call i64 @rb_str_cat(i64 noundef %46, ptr noundef nonnull %22, i64 noundef %53) #25
  br label %55

55:                                               ; preds = %50, %48
  %56 = load i64, ptr %.04482, align 8, !tbaa !47
  %57 = getelementptr inbounds nuw i8, ptr %3, i64 8
  store i64 %56, ptr %57, align 8, !tbaa !47
  %58 = load i64, ptr @rb_eNameError, align 8, !tbaa !47
  %59 = call i64 @rb_class_new_instance(i32 noundef 2, ptr noundef nonnull %3, i64 noundef %58) #25
  call void @rb_exc_raise(i64 noundef %59) #26
  unreachable

.fold.split:                                      ; preds = %34
  br label %60

60:                                               ; preds = %34, %.fold.split, %39
  %.1 = phi i32 [ %.038, %39 ], [ %.038, %.fold.split ], [ 1, %34 ]
  %61 = getelementptr i8, ptr %.039, i64 1
  br label %34, !llvm.loop !204

.loopexit70:                                      ; preds = %34, %36
  store i8 36, ptr %22, align 1, !tbaa !7
  %.not54 = icmp eq i32 %.038, 0
  br i1 %.not54, label %.loopexit69, label %.preheader

.preheader:                                       ; preds = %.loopexit70, %64
  %.140 = phi ptr [ %65, %64 ], [ %26, %.loopexit70 ]
  %62 = load i8, ptr %.140, align 1, !tbaa !7
  switch i8 %62, label %64 [
    i8 0, label %.loopexit69
    i8 45, label %63
  ]

63:                                               ; preds = %.preheader
  store i8 95, ptr %.140, align 1, !tbaa !7
  br label %64

64:                                               ; preds = %.preheader, %63
  %65 = getelementptr i8, ptr %.140, i64 1
  br label %.preheader, !llvm.loop !205

.thread:                                          ; preds = %.lr.ph, %29
  %.2.ph = phi i64 [ %25, %29 ], [ %.04283, %.lr.ph ]
  call void @llvm.lifetime.end.p0(i64 8, ptr nonnull %2) #25
  br label %.loopexit71

.loopexit69:                                      ; preds = %.preheader, %.loopexit70
  %66 = load i64, ptr %2, align 8, !tbaa !47
  %67 = call i64 @rb_gv_set(ptr noundef nonnull %22, i64 noundef %66) #25
  call void @llvm.lifetime.end.p0(i64 8, ptr nonnull %2) #25
  %68 = icmp sgt i64 %.04283, 1
  br i1 %68, label %.lr.ph, label %.loopexit71

.loopexit71:                                      ; preds = %.loopexit69, %rb_array_const_ptr.exit, %.thread
  %.143 = phi i64 [ %.2.ph, %.thread ], [ %.0.i63, %rb_array_const_ptr.exit ], [ 0, %.loopexit69 ]
  %69 = load i64, ptr %7, align 8, !tbaa !42
  %70 = and i64 %69, 8192
  %.not.i59 = icmp eq i64 %70, 0
  br i1 %.not.i59, label %74, label %71

71:                                               ; preds = %.loopexit71
  %72 = lshr i64 %69, 15
  %73 = and i64 %72, 127
  br label %rb_array_len.exit61

74:                                               ; preds = %.loopexit71
  %75 = getelementptr inbounds nuw i8, ptr %7, i64 16
  %76 = load i64, ptr %75, align 8, !tbaa !7
  br label %rb_array_len.exit61

rb_array_len.exit61:                              ; preds = %71, %74
  %.0.i60 = phi i64 [ %73, %71 ], [ %76, %74 ]
  %77 = sub i64 %.0.i60, %.143
  %.not5684 = icmp eq i64 %77, 0
  br i1 %.not5684, label %.loopexit, label %.lr.ph86

.lr.ph86:                                         ; preds = %rb_array_len.exit61, %.lr.ph86
  %.385 = phi i64 [ %78, %.lr.ph86 ], [ %77, %rb_array_len.exit61 ]
  %78 = add i64 %.385, -1
  %79 = call i64 @rb_ary_shift(i64 noundef %6) #25
  %.not56 = icmp eq i64 %78, 0
  br i1 %.not56, label %.loopexit, label %.lr.ph86, !llvm.loop !206

.loopexit:                                        ; preds = %.lr.ph86, %rb_array_len.exit61, %1
  %.041 = phi i32 [ %0, %1 ], [ -1, %rb_array_len.exit61 ], [ -1, %.lr.ph86 ]
  ret i32 %.041
}